target datalayout = "e-m:e-p270:32:32-p271:32:32-p272:64:64-i64:64-i128:128-f80:128-n8:16:32:64-S128"
target triple = "x86_64-pc-linux-gnu"

%struct.commit = type { %struct.object, i64, ptr, ptr, i32 }
%struct.object = type { i32, %struct.object_id }
%struct.object_id = type { [32 x i8], i32 }
%struct.commit_list = type { ptr, ptr }
%struct.patch_id = type { %struct.hashmap_entry, %struct.object_id, ptr }
%struct.hashmap_entry = type { ptr, i32 }

@.str = private unnamed_addr constant [1 x i8] zeroinitializer, align 1
@.str.1 = private unnamed_addr constant [30 x i8] c"Could not get patch ID for %s\00", align 1
@is_null_oid.null_hash = internal constant [32 x i8] zeroinitializer, align 16

; Function Attrs: nounwind uwtable
define internal i32 @patch_id_defined(ptr noundef %0) #0 {
  %2 = alloca ptr, align 8
  store ptr %0, ptr %2, align 8, !tbaa !4
  %3 = load ptr, ptr %2, align 8, !tbaa !4
  %4 = getelementptr inbounds nuw %struct.commit, ptr %3, i32 0, i32 2
  %5 = load ptr, ptr %4, align 8, !tbaa !15
  %6 = icmp ne ptr %5, null
  br i1 %6, label %7, label %15

7:                                                ; preds = %1
  %8 = load ptr, ptr %2, align 8, !tbaa !4
  %9 = getelementptr inbounds nuw %struct.commit, ptr %8, i32 0, i32 2
  %10 = load ptr, ptr %9, align 8, !tbaa !15
  %11 = getelementptr inbounds nuw %struct.commit_list, ptr %10, i32 0, i32 1
  %12 = load ptr, ptr %11, align 8, !tbaa !24
  %13 = icmp ne ptr %12, null
  %14 = xor i1 %13, true
  br label %15

15:                                               ; preds = %7, %1
  %16 = phi i1 [ true, %1 ], [ %14, %7 ]
  %17 = zext i1 %16 to i32
  ret i32 %17
}

; Function Attrs: inlinehint nounwind uwtable
define internal i32 @oideq(ptr noundef %0, ptr noundef %1) #4 {
  %3 = alloca ptr, align 8
  %4 = alloca ptr, align 8
  store ptr %0, ptr %3, align 8, !tbaa !11
  store ptr %1, ptr %4, align 8, !tbaa !11
  %5 = load ptr, ptr %3, align 8, !tbaa !11
  %6 = getelementptr inbounds nuw %struct.object_id, ptr %5, i32 0, i32 0
  %7 = getelementptr inbounds [32 x i8], ptr %6, i64 0, i64 0
  %8 = load ptr, ptr %4, align 8, !tbaa !11
  %9 = getelementptr inbounds nuw %struct.object_id, ptr %8, i32 0, i32 0
  %10 = getelementptr inbounds [32 x i8], ptr %9, i64 0, i64 0
  %11 = call i32 @memcmp(ptr noundef %7, ptr noundef %10, i64 noundef 32) #9
  %12 = icmp ne i32 %11, 0
  %13 = xor i1 %12, true
  %14 = zext i1 %13 to i32
  ret i32 %14
}

; Function Attrs: inlinehint nounwind uwtable
define internal i32 @const_error() #4 {
  ret i32 -1
}

; Function Attrs: nounwind uwtable
define dso_local i32 @commit_patch_id(ptr noundef %0, ptr noundef %1, ptr noundef %2, i32 noundef %3) #0 {
  %5 = alloca i32, align 4
  %6 = alloca ptr, align 8
  %7 = alloca ptr, align 8
  %8 = alloca ptr, align 8
  %9 = alloca i32, align 4
  store ptr %0, ptr %6, align 8, !tbaa !4
  store ptr %1, ptr %7, align 8, !tbaa !9
  store ptr %2, ptr %8, align 8, !tbaa !11
  store i32 %3, ptr %9, align 4, !tbaa !13
  %10 = load ptr, ptr %6, align 8, !tbaa !4
  %11 = call i32 @patch_id_defined(ptr noundef %10)
  %12 = icmp ne i32 %11, 0
  br i1 %12, label %14, label %13

13:                                               ; preds = %4
  store i32 -1, ptr %5, align 4
  br label %42

14:                                               ; preds = %4
  %15 = load ptr, ptr %6, align 8, !tbaa !4
  %16 = getelementptr inbounds nuw %struct.commit, ptr %15, i32 0, i32 2
  %17 = load ptr, ptr %16, align 8, !tbaa !15
  %18 = icmp ne ptr %17, null
  br i1 %18, label %19, label %31

19:                                               ; preds = %14
  %20 = load ptr, ptr %6, align 8, !tbaa !4
  %21 = getelementptr inbounds nuw %struct.commit, ptr %20, i32 0, i32 2
  %22 = load ptr, ptr %21, align 8, !tbaa !15
  %23 = getelementptr inbounds nuw %struct.commit_list, ptr %22, i32 0, i32 0
  %24 = load ptr, ptr %23, align 8, !tbaa !22
  %25 = getelementptr inbounds nuw %struct.commit, ptr %24, i32 0, i32 0
  %26 = getelementptr inbounds nuw %struct.object, ptr %25, i32 0, i32 1
  %27 = load ptr, ptr %6, align 8, !tbaa !4
  %28 = getelementptr inbounds nuw %struct.commit, ptr %27, i32 0, i32 0
  %29 = getelementptr inbounds nuw %struct.object, ptr %28, i32 0, i32 1
  %30 = load ptr, ptr %7, align 8, !tbaa !9
  call void @diff_tree_oid(ptr noundef %26, ptr noundef %29, ptr noundef @.str, ptr noundef %30)
  br label %36

31:                                               ; preds = %14
  %32 = load ptr, ptr %6, align 8, !tbaa !4
  %33 = getelementptr inbounds nuw %struct.commit, ptr %32, i32 0, i32 0
  %34 = getelementptr inbounds nuw %struct.object, ptr %33, i32 0, i32 1
  %35 = load ptr, ptr %7, align 8, !tbaa !9
  call void @diff_root_tree_oid(ptr noundef %34, ptr noundef @.str, ptr noundef %35)
  br label %36

36:                                               ; preds = %31, %19
  %37 = load ptr, ptr %7, align 8, !tbaa !9
  call void @diffcore_std(ptr noundef %37)
  %38 = load ptr, ptr %7, align 8, !tbaa !9
  %39 = load ptr, ptr %8, align 8, !tbaa !11
  %40 = load i32, ptr %9, align 4, !tbaa !13
  %41 = call i32 @diff_flush_patch_id(ptr noundef %38, ptr noundef %39, i32 noundef %40)
  store i32 %41, ptr %5, align 4
  br label %42

42:                                               ; preds = %36, %13
  %43 = load i32, ptr %5, align 4
  ret i32 %43
}

; Function Attrs: inlinehint nounwind uwtable
define internal i32 @is_null_oid(ptr noundef %0) #4 {
  %2 = alloca ptr, align 8
  store ptr %0, ptr %2, align 8, !tbaa !11
  %3 = load ptr, ptr %2, align 8, !tbaa !11
  %4 = getelementptr inbounds nuw %struct.object_id, ptr %3, i32 0, i32 0
  %5 = getelementptr inbounds [32 x i8], ptr %4, i64 0, i64 0
  %6 = call i32 @memcmp(ptr noundef %5, ptr noundef @is_null_oid.null_hash, i64 noundef 32) #9
  %7 = icmp ne i32 %6, 0
  %8 = xor i1 %7, true
  %9 = zext i1 %8 to i32
  ret i32 %9
}

; Function Attrs: nounwind uwtable
define internal i32 @patch_id_neq(ptr noundef %0, ptr noundef %1, ptr noundef %2, ptr noundef %3) #0 {
  %5 = alloca i32, align 4
  %6 = alloca ptr, align 8
  %7 = alloca ptr, align 8
  %8 = alloca ptr, align 8
  %9 = alloca ptr, align 8
  %10 = alloca ptr, align 8
  %11 = alloca ptr, align 8
  %12 = alloca ptr, align 8
  %13 = alloca i32, align 4
  store ptr %0, ptr %6, align 8, !tbaa !45
  store ptr %1, ptr %7, align 8, !tbaa !46
  store ptr %2, ptr %8, align 8, !tbaa !46
  store ptr %3, ptr %9, align 8, !tbaa !45
  call void @llvm.lifetime.start.p0(i64 8, ptr %10) #8
  %14 = load ptr, ptr %6, align 8, !tbaa !45
  store ptr %14, ptr %10, align 8, !tbaa !9
  call void @llvm.lifetime.start.p0(i64 8, ptr %11) #8
  call void @llvm.lifetime.start.p0(i64 8, ptr %12) #8
  %15 = load ptr, ptr %7, align 8, !tbaa !46
  %16 = getelementptr inbounds i8, ptr %15, i64 0
  store ptr %16, ptr %11, align 8, !tbaa !48
  %17 = load ptr, ptr %8, align 8, !tbaa !46
  %18 = getelementptr inbounds i8, ptr %17, i64 0
  store ptr %18, ptr %12, align 8, !tbaa !48
  %19 = load ptr, ptr %11, align 8, !tbaa !48
  %20 = getelementptr inbounds nuw %struct.patch_id, ptr %19, i32 0, i32 1
  %21 = call i32 @is_null_oid(ptr noundef %20)
  %22 = icmp ne i32 %21, 0
  br i1 %22, label %23, label %41

23:                                               ; preds = %4
  %24 = load ptr, ptr %11, align 8, !tbaa !48
  %25 = getelementptr inbounds nuw %struct.patch_id, ptr %24, i32 0, i32 2
  %26 = load ptr, ptr %25, align 8, !tbaa !50
  %27 = load ptr, ptr %10, align 8, !tbaa !9
  %28 = load ptr, ptr %11, align 8, !tbaa !48
  %29 = getelementptr inbounds nuw %struct.patch_id, ptr %28, i32 0, i32 1
  %30 = call i32 @commit_patch_id(ptr noundef %26, ptr noundef %27, ptr noundef %29, i32 noundef 0)
  %31 = icmp ne i32 %30, 0
  br i1 %31, label %32, label %41

32:                                               ; preds = %23
  %33 = load ptr, ptr %11, align 8, !tbaa !48
  %34 = getelementptr inbounds nuw %struct.patch_id, ptr %33, i32 0, i32 2
  %35 = load ptr, ptr %34, align 8, !tbaa !50
  %36 = getelementptr inbounds nuw %struct.commit, ptr %35, i32 0, i32 0
  %37 = getelementptr inbounds nuw %struct.object, ptr %36, i32 0, i32 1
  %38 = call ptr @oid_to_hex(ptr noundef %37)
  %39 = call i32 (ptr, ...) @error(ptr noundef @.str.1, ptr noundef %38)
  %40 = call i32 @const_error()
  store i32 %40, ptr %5, align 4
  store i32 1, ptr %13, align 4
  br label %73

41:                                               ; preds = %23, %4
  %42 = load ptr, ptr %12, align 8, !tbaa !48
  %43 = getelementptr inbounds nuw %struct.patch_id, ptr %42, i32 0, i32 1
  %44 = call i32 @is_null_oid(ptr noundef %43)
  %45 = icmp ne i32 %44, 0
  br i1 %45, label %46, label %64

46:                                               ; preds = %41
  %47 = load ptr, ptr %12, align 8, !tbaa !48
  %48 = getelementptr inbounds nuw %struct.patch_id, ptr %47, i32 0, i32 2
  %49 = load ptr, ptr %48, align 8, !tbaa !50
  %50 = load ptr, ptr %10, align 8, !tbaa !9
  %51 = load ptr, ptr %12, align 8, !tbaa !48
  %52 = getelementptr inbounds nuw %struct.patch_id, ptr %51, i32 0, i32 1
  %53 = call i32 @commit_patch_id(ptr noundef %49, ptr noundef %50, ptr noundef %52, i32 noundef 0)
  %54 = icmp ne i32 %53, 0
  br i1 %54, label %55, label %64

55:                                               ; preds = %46
  %56 = load ptr, ptr %12, align 8, !tbaa !48
  %57 = getelementptr inbounds nuw %struct.patch_id, ptr %56, i32 0, i32 2
  %58 = load ptr, ptr %57, align 8, !tbaa !50
  %59 = getelementptr inbounds nuw %struct.commit, ptr %58, i32 0, i32 0
  %60 = getelementptr inbounds nuw %struct.object, ptr %59, i32 0, i32 1
  %61 = call ptr @oid_to_hex(ptr noundef %60)
  %62 = call i32 (ptr, ...) @error(ptr noundef @.str.1, ptr noundef %61)
  %63 = call i32 @const_error()
  store i32 %63, ptr %5, align 4
  store i32 1, ptr %13, align 4
  br label %73

64:                                               ; preds = %46, %41
  %65 = load ptr, ptr %11, align 8, !tbaa !48
  %66 = getelementptr inbounds nuw %struct.patch_id, ptr %65, i32 0, i32 1
  %67 = load ptr, ptr %12, align 8, !tbaa !48
  %68 = getelementptr inbounds nuw %struct.patch_id, ptr %67, i32 0, i32 1
  %69 = call i32 @oideq(ptr noundef %66, ptr noundef %68)
  %70 = icmp ne i32 %69, 0
  %71 = xor i1 %70, true
  %72 = zext i1 %71 to i32
  store i32 %72, ptr %5, align 4
  store i32 1, ptr %13, align 4
  br label %73

73:                                               ; preds = %64, %55, %32
  call void @llvm.lifetime.end.p0(i64 8, ptr %12) #8
  call void @llvm.lifetime.end.p0(i64 8, ptr %11) #8
  call void @llvm.lifetime.end.p0(i64 8, ptr %10) #8
  %74 = load i32, ptr %5, align 4
  ret i32 %74
}