; Function Attrs: nounwind uwtable
define internal range(i32 -1, 2) i32 @patch_id_neq(ptr noundef %0, ptr noundef %1, ptr noundef %2, ptr readnone captures(none) %3) #0 {
  %5 = getelementptr inbounds nuw i8, ptr %1, i64 16
  %bcmp.i = tail call i32 @bcmp(ptr noundef nonnull readonly dereferenceable(32) %5, ptr noundef nonnull dereferenceable(32) @is_null_oid.null_hash, i64 32)
  %.not.i.not = icmp eq i32 %bcmp.i, 0
  br i1 %.not.i.not, label %6, label %23

6:                                                ; preds = %4
  %7 = getelementptr inbounds nuw i8, ptr %1, i64 56
  %8 = load ptr, ptr %7, align 8, !tbaa !36
  %9 = getelementptr i8, ptr %8, i64 48
  %.val.i = load ptr, ptr %9, align 8, !tbaa !4
  %.not.i.i = icmp eq ptr %.val.i, null
  br i1 %.not.i.i, label %16, label %patch_id_defined.exit.i

patch_id_defined.exit.i:                          ; preds = %6
  %10 = getelementptr inbounds nuw i8, ptr %.val.i, i64 8
  %11 = load ptr, ptr %10, align 8, !tbaa !15
  %.not2.i.not.i = icmp eq ptr %11, null
  br i1 %.not2.i.not.i, label %12, label %commit_patch_id.exit.thread

12:                                               ; preds = %patch_id_defined.exit.i
  %13 = load ptr, ptr %.val.i, align 8, !tbaa !18
  %14 = getelementptr inbounds nuw i8, ptr %13, i64 4
  %15 = getelementptr inbounds nuw i8, ptr %8, i64 4
  tail call void @diff_tree_oid(ptr noundef nonnull %14, ptr noundef nonnull %15, ptr noundef nonnull @.str, ptr noundef %0) #6
  br label %commit_patch_id.exit

16:                                               ; preds = %6
  %17 = getelementptr inbounds nuw i8, ptr %8, i64 4
  tail call void @diff_root_tree_oid(ptr noundef nonnull %17, ptr noundef nonnull @.str, ptr noundef %0) #6
  br label %commit_patch_id.exit

commit_patch_id.exit:                             ; preds = %12, %16
  tail call void @diffcore_std(ptr noundef %0) #6
  %18 = tail call i32 @diff_flush_patch_id(ptr noundef %0, ptr noundef nonnull %5, i32 noundef 0) #6
  %.not15 = icmp eq i32 %18, 0
  br i1 %.not15, label %23, label %commit_patch_id.exit.commit_patch_id.exit.thread_crit_edge

commit_patch_id.exit.commit_patch_id.exit.thread_crit_edge: ; preds = %commit_patch_id.exit
  %.pre = load ptr, ptr %7, align 8, !tbaa !36
  br label %commit_patch_id.exit.thread

commit_patch_id.exit.thread:                      ; preds = %commit_patch_id.exit.commit_patch_id.exit.thread_crit_edge, %patch_id_defined.exit.i
  %19 = phi ptr [ %.pre, %commit_patch_id.exit.commit_patch_id.exit.thread_crit_edge ], [ %8, %patch_id_defined.exit.i ]
  %20 = getelementptr inbounds nuw i8, ptr %19, i64 4
  %21 = tail call ptr @oid_to_hex(ptr noundef nonnull %20) #6
  %22 = tail call i32 (ptr, ...) @error(ptr noundef nonnull @.str.1, ptr noundef %21) #6
  br label %44

23:                                               ; preds = %commit_patch_id.exit, %4
  %24 = getelementptr inbounds nuw i8, ptr %2, i64 16
  %bcmp.i19 = tail call i32 @bcmp(ptr noundef nonnull readonly dereferenceable(32) %24, ptr noundef nonnull dereferenceable(32) @is_null_oid.null_hash, i64 32)
  %.not.i20.not = icmp eq i32 %bcmp.i19, 0
  br i1 %.not.i20.not, label %25, label %42

25:                                               ; preds = %23
  %26 = getelementptr inbounds nuw i8, ptr %2, i64 56
  %27 = load ptr, ptr %26, align 8, !tbaa !36
  %28 = getelementptr i8, ptr %27, i64 48
  %.val.i21 = load ptr, ptr %28, align 8, !tbaa !4
  %.not.i.i22 = icmp eq ptr %.val.i21, null
  br i1 %.not.i.i22, label %35, label %patch_id_defined.exit.i23

patch_id_defined.exit.i23:                        ; preds = %25
  %29 = getelementptr inbounds nuw i8, ptr %.val.i21, i64 8
  %30 = load ptr, ptr %29, align 8, !tbaa !15
  %.not2.i.not.i24 = icmp eq ptr %30, null
  br i1 %.not2.i.not.i24, label %31, label %commit_patch_id.exit26.thread

31:                                               ; preds = %patch_id_defined.exit.i23
  %32 = load ptr, ptr %.val.i21, align 8, !tbaa !18
  %33 = getelementptr inbounds nuw i8, ptr %32, i64 4
  %34 = getelementptr inbounds nuw i8, ptr %27, i64 4
  tail call void @diff_tree_oid(ptr noundef nonnull %33, ptr noundef nonnull %34, ptr noundef nonnull @.str, ptr noundef %0) #6
  br label %commit_patch_id.exit26

35:                                               ; preds = %25
  %36 = getelementptr inbounds nuw i8, ptr %27, i64 4
  tail call void @diff_root_tree_oid(ptr noundef nonnull %36, ptr noundef nonnull @.str, ptr noundef %0) #6
  br label %commit_patch_id.exit26

commit_patch_id.exit26:                           ; preds = %31, %35
  tail call void @diffcore_std(ptr noundef %0) #6
  %37 = tail call i32 @diff_flush_patch_id(ptr noundef %0, ptr noundef nonnull %24, i32 noundef 0) #6
  %.not17 = icmp eq i32 %37, 0
  br i1 %.not17, label %42, label %commit_patch_id.exit26.commit_patch_id.exit26.thread_crit_edge

commit_patch_id.exit26.commit_patch_id.exit26.thread_crit_edge: ; preds = %commit_patch_id.exit26
  %.pre33 = load ptr, ptr %26, align 8, !tbaa !36
  br label %commit_patch_id.exit26.thread

commit_patch_id.exit26.thread:                    ; preds = %commit_patch_id.exit26.commit_patch_id.exit26.thread_crit_edge, %patch_id_defined.exit.i23
  %38 = phi ptr [ %.pre33, %commit_patch_id.exit26.commit_patch_id.exit26.thread_crit_edge ], [ %27, %patch_id_defined.exit.i23 ]
  %39 = getelementptr inbounds nuw i8, ptr %38, i64 4
  %40 = tail call ptr @oid_to_hex(ptr noundef nonnull %39) #6
  %41 = tail call i32 (ptr, ...) @error(ptr noundef nonnull @.str.1, ptr noundef %40) #6
  br label %44

42:                                               ; preds = %commit_patch_id.exit26, %23
  %bcmp.i27 = tail call i32 @bcmp(ptr noundef nonnull readonly dereferenceable(32) %5, ptr noundef nonnull readonly dereferenceable(32) %24, i64 32)
  %.not.i28 = icmp ne i32 %bcmp.i27, 0
  %43 = zext i1 %.not.i28 to i32
  br label %44

44:                                               ; preds = %42, %commit_patch_id.exit26.thread, %commit_patch_id.exit.thread
  %.0 = phi i32 [ -1, %commit_patch_id.exit.thread ], [ -1, %commit_patch_id.exit26.thread ], [ %43, %42 ]
  ret i32 %.0
}